target datalayout = "e-m:e-p270:32:32-p271:32:32-p272:64:64-i64:64-i128:128-f80:128-n8:16:32:64-S128"
target triple = "x86_64-pc-linux-gnu"

%struct.pm_lex_mode = type { i32, %union.anon, ptr }
%union.anon = type { %struct.anon.3 }
%struct.anon.3 = type { %struct.pm_heredoc_lex_mode_t, ptr, ptr, i8 }
%struct.pm_heredoc_lex_mode_t = type { ptr, i64, i32, i32 }
%struct.pm_parser = type { i32, i32, i32, i32, i32, i32, i32, %struct.anon, ptr, ptr, %struct.pm_token_t, %struct.pm_token_t, ptr, ptr, %struct.pm_list_t, %struct.pm_list_t, %struct.pm_location_t, %struct.pm_list_t, %struct.pm_list_t, ptr, ptr, ptr, ptr, ptr, ptr, ptr, %struct.pm_string_t, %struct.pm_constant_pool_t, %struct.pm_newline_list_t, i16, %struct.pm_string_t, i32, ptr, ptr, i32, i8, i8, i8, i8, i8, i8, i8, i8, i8, i8, i8, i8, i8 }
%struct.anon = type { ptr, [4 x %struct.pm_lex_mode], i64 }
%struct.pm_token_t = type { i32, ptr, ptr }
%struct.pm_location_t = type { ptr, ptr }
%struct.pm_list_t = type { i64, ptr, ptr }
%struct.pm_constant_pool_t = type { ptr, ptr, i32, i32 }
%struct.pm_newline_list_t = type { ptr, i64, i64, ptr }
%struct.pm_string_t = type { ptr, i64, i32 }

@.str.91 = private unnamed_addr constant [4 x i8] c"\\C-\00", align 1
@.str.92 = private unnamed_addr constant [4 x i8] c"\\M-\00", align 1
@.str.93 = private unnamed_addr constant [1 x i8] zeroinitializer, align 1

; Function Attrs: nounwind sspstrong uwtable
define internal void @escape_read_warn(ptr noundef %0, i8 noundef zeroext %1, i8 noundef zeroext %2, ptr noundef %3) #0 {
  %5 = alloca ptr, align 8
  %6 = alloca i8, align 1
  %7 = alloca i8, align 1
  %8 = alloca ptr, align 8
  store ptr %0, ptr %5, align 8, !tbaa !7
  store i8 %1, ptr %6, align 1, !tbaa !39
  store i8 %2, ptr %7, align 1, !tbaa !39
  store ptr %3, ptr %8, align 8, !tbaa !12
  %9 = load ptr, ptr %5, align 8, !tbaa !7
  %10 = getelementptr inbounds nuw %struct.pm_parser, ptr %9, i32 0, i32 17
  %11 = load ptr, ptr %5, align 8, !tbaa !7
  %12 = getelementptr inbounds nuw %struct.pm_parser, ptr %11, i32 0, i32 11
  %13 = getelementptr inbounds nuw %struct.pm_token_t, ptr %12, i32 0, i32 1
  %14 = load ptr, ptr %13, align 8, !tbaa !169
  %15 = load ptr, ptr %5, align 8, !tbaa !7
  %16 = getelementptr inbounds nuw %struct.pm_parser, ptr %15, i32 0, i32 11
  %17 = getelementptr inbounds nuw %struct.pm_token_t, ptr %16, i32 0, i32 2
  %18 = load ptr, ptr %17, align 8, !tbaa !93
  %19 = load i8, ptr %6, align 1, !tbaa !39
  %20 = zext i8 %19 to i32
  %21 = and i32 %20, 1
  %22 = icmp ne i32 %21, 0
  br i1 %22, label %23, label %24

23:                                               ; preds = %4
  br label %30

24:                                               ; preds = %4
  %25 = load i8, ptr %6, align 1, !tbaa !39
  %26 = zext i8 %25 to i32
  %27 = and i32 %26, 2
  %28 = icmp ne i32 %27, 0
  %29 = select i1 %28, ptr @.str.92, ptr @.str.93
  br label %30

30:                                               ; preds = %24, %23
  %31 = phi ptr [ @.str.91, %23 ], [ %29, %24 ]
  %32 = load i8, ptr %7, align 1, !tbaa !39
  %33 = zext i8 %32 to i32
  %34 = and i32 %33, 1
  %35 = icmp ne i32 %34, 0
  br i1 %35, label %36, label %37

36:                                               ; preds = %30
  br label %43

37:                                               ; preds = %30
  %38 = load i8, ptr %7, align 1, !tbaa !39
  %39 = zext i8 %38 to i32
  %40 = and i32 %39, 2
  %41 = icmp ne i32 %40, 0
  %42 = select i1 %41, ptr @.str.92, ptr @.str.93
  br label %43

43:                                               ; preds = %37, %36
  %44 = phi ptr [ @.str.91, %36 ], [ %42, %37 ]
  %45 = load ptr, ptr %8, align 8, !tbaa !12
  %46 = call zeroext i1 (ptr, ptr, ptr, i32, ...) @pm_diagnostic_list_append_format(ptr noundef %10, ptr noundef %14, ptr noundef %18, i32 noundef 307, ptr noundef %31, ptr noundef %44, ptr noundef %45)
  ret void
}