; Function Attrs: nounwind sspstrong uwtable
define internal fastcc void @escape_read_warn(ptr noundef %0, i8 noundef zeroext range(i8 0, 12) %1, i8 noundef zeroext range(i8 0, 3) %2, ptr noundef %3) unnamed_addr #1 {
  %5 = getelementptr inbounds nuw i8, ptr %0, i64 448
  %6 = getelementptr inbounds nuw i8, ptr %0, i64 352
  %7 = load ptr, ptr %6, align 8, !tbaa !165
  %8 = getelementptr inbounds nuw i8, ptr %0, i64 360
  %9 = load ptr, ptr %8, align 8, !tbaa !74
  %10 = zext nneg i8 %1 to i32
  %11 = and i32 %10, 1
  %.not = icmp eq i32 %11, 0
  %12 = and i32 %10, 2
  %.not7 = icmp eq i32 %12, 0
  %13 = select i1 %.not7, ptr @.str.93, ptr @.str.92
  %14 = select i1 %.not, ptr %13, ptr @.str.91
  %15 = and i8 %2, 1
  %.not8 = icmp eq i8 %15, 0
  %.not9 = icmp samesign ult i8 %2, 2
  %16 = select i1 %.not9, ptr @.str.93, ptr @.str.92
  %17 = select i1 %.not8, ptr %16, ptr @.str.91
  %18 = tail call zeroext i1 (ptr, ptr, ptr, i32, ...) @pm_diagnostic_list_append_format(ptr noundef nonnull %5, ptr noundef %7, ptr noundef %9, i32 noundef 307, ptr noundef nonnull %14, ptr noundef nonnull %17, ptr noundef %3) #31
  ret void
}